

Microchip Technology PIC18 LITE Macro Assembler V1.33 build 59893 
                                                                                               Thu Sep 03 20:12:53 2020

Microchip Technology Omniscient Code Generator (Lite mode) build 59893
     1                           	processor	18F4550
     2                           	fnconf	rparam,??,?,0
     3                           	opt	pw 120
     4                           	opt	lm
     5                           	psect	idataCOMRAM,global,class=CODE,delta=1
     6                           	psect	smallconst,global,reloc=2,class=SMALLCONST,delta=1
     7                           	psect	cinit,global,reloc=2,class=CODE,delta=1
     8                           	psect	bssCOMRAM,global,class=COMRAM,space=1,delta=1
     9                           	psect	dataCOMRAM,global,class=COMRAM,space=1,delta=1
    10                           	psect	cstackCOMRAM,global,class=COMRAM,space=1,delta=1
    11                           	psect	text0,global,reloc=2,class=CODE,delta=1
    12                           	psect	text1,global,reloc=2,class=CODE,delta=1
    13                           	psect	intsave_regs,global,class=BIGRAM,space=1,delta=1
    14                           	psect	rparam,global,class=COMRAM,space=1,delta=1
    15  0000                     
    16                           	psect	idataCOMRAM
    17  0008B6                     __pidataCOMRAM:
    18                           	opt stack 0
    19                           
    20                           ;initializer for EscreveInteiroLCD@F5476
    21  0008B6  30                 	db	48
    22  0008B7  30                 	db	48
    23  0008B8  30                 	db	48
    24  0008B9  30                 	db	48
    25  0008BA  30                 	db	48
    26  0008BB  30                 	db	48
    27  0008BC  00                 	db	0
    28                           
    29                           	psect	smallconst
    30  000800                     __psmallconst:
    31                           	opt stack 0
    32  000800  00                 	db	0
    33  000801                     _dpowers:
    34                           	opt stack 0
    35  000801  0001               	dw	1
    36  000803  0000               	dw	0
    37  000805  000A               	dw	10
    38  000807  0000               	dw	0
    39  000809  0064               	dw	100
    40  00080B  0000               	dw	0
    41  00080D  03E8               	dw	1000
    42  00080F  0000               	dw	0
    43  000811  2710               	dw	10000
    44  000813  0000               	dw	0
    45  000815  86A0               	dw	34464
    46  000817  0001               	dw	1
    47  000819  4240               	dw	16960
    48  00081B  000F               	dw	15
    49  00081D  9680               	dw	38528
    50  00081F  0098               	dw	152
    51  000821  E100               	dw	57600
    52  000823  05F5               	dw	1525
    53  000825  CA00               	dw	51712
    54  000827  3B9A               	dw	15258
    55  000829                     __end_of_dpowers:
    56                           	opt stack 0
    57  0000                     _ADCON1	set	4033
    58  0000                     _LATB	set	3978
    59  0000                     _PORTBbits	set	3969
    60  0000                     _PORTDbits	set	3971
    61  0000                     _TRISB	set	3987
    62  0000                     _TRISDbits	set	3989
    63  000829                     __stringdata:
    64                           	opt stack 0
    65  000829  25                 	db	37
    66  00082A  6C                 	db	108	;'l'
    67  00082B  75                 	db	117	;'u'
    68  00082C  2E                 	db	46
    69  00082D  25                 	db	37
    70  00082E  36                 	db	54	;'6'
    71  00082F  2E                 	db	46
    72  000830  36                 	db	54	;'6'
    73  000831  6C                 	db	108	;'l'
    74  000832  75                 	db	117	;'u'
    75  000833  00                 	db	0
    76  000834                     __end_of__stringdata:
    77                           	opt stack 0
    78  000834  00                 	db	0	; dummy byte at the end
    79  0000                     
    80                           ; #config settings
    81                           
    82                           	psect	cinit
    83  000836                     __pcinit:
    84                           	opt stack 0
    85  000836                     start_initialization:
    86                           	opt stack 0
    87  000836                     __initialization:
    88                           	opt stack 0
    89                           
    90                           ; Clear objects allocated to COMRAM (17 bytes)
    91  000836  EE00  F001         	lfsr	0,__pbssCOMRAM
    92  00083A  0E11               	movlw	17
    93  00083C                     clear_0:
    94  00083C  6AEE               	clrf	postinc0,c
    95  00083E  06E8               	decf	wreg,f,c
    96  000840  E1FD               	bnz	clear_0
    97                           
    98                           ; Initialize objects allocated to COMRAM (7 bytes)
    99                           ; load TBLPTR registers with __pidataCOMRAM
   100  000842  0EB6               	movlw	low __pidataCOMRAM
   101  000844  6EF6               	movwf	tblptrl,c
   102  000846  0E08               	movlw	high __pidataCOMRAM
   103  000848  6EF7               	movwf	tblptrh,c
   104  00084A  0E00               	movlw	low (__pidataCOMRAM shr (0+16))
   105  00084C  6EF8               	movwf	tblptru,c
   106  00084E  EE00  F012         	lfsr	0,__pdataCOMRAM
   107  000852  EE10 F007          	lfsr	1,7
   108  000856                     copy_data0:
   109  000856  0009               	tblrd		*+
   110  000858  CFF5 FFEE          	movff	tablat,postinc0
   111  00085C  50E5               	movf	postdec1,w,c
   112  00085E  50E1               	movf	fsr1l,w,c
   113  000860  E1FA               	bnz	copy_data0
   114  000862                     end_of_initialization:
   115                           	opt stack 0
   116  000862                     __end_of__initialization:
   117                           	opt stack 0
   118  000862  0E00               	movlw	low (__Lmediumconst shr (0+16))
   119  000864  6EF8               	movwf	tblptru,c
   120  000866  0100               	movlb	0
   121  000868  EF36  F004         	goto	_main	;jump to C main() function
   122                           tblptru	equ	0xFF8
   123                           tblptrh	equ	0xFF7
   124                           tblptrl	equ	0xFF6
   125                           tablat	equ	0xFF5
   126                           postinc0	equ	0xFEE
   127                           wreg	equ	0xFE8
   128                           postdec1	equ	0xFE5
   129                           fsr1l	equ	0xFE1
   130                           
   131                           	psect	bssCOMRAM
   132  000001                     __pbssCOMRAM:
   133                           	opt stack 0
   134  000001                     ftoa@buf:
   135                           	opt stack 0
   136  000001                     	ds	17
   137                           tblptru	equ	0xFF8
   138                           tblptrh	equ	0xFF7
   139                           tblptrl	equ	0xFF6
   140                           tablat	equ	0xFF5
   141                           postinc0	equ	0xFEE
   142                           wreg	equ	0xFE8
   143                           postdec1	equ	0xFE5
   144                           fsr1l	equ	0xFE1
   145                           
   146                           	psect	dataCOMRAM
   147  000012                     __pdataCOMRAM:
   148                           	opt stack 0
   149  000012                     EscreveInteiroLCD@F5476:
   150                           	opt stack 0
   151  000012                     	ds	7
   152                           tblptru	equ	0xFF8
   153                           tblptrh	equ	0xFF7
   154                           tblptrl	equ	0xFF6
   155                           tablat	equ	0xFF5
   156                           postinc0	equ	0xFEE
   157                           wreg	equ	0xFE8
   158                           postdec1	equ	0xFE5
   159                           fsr1l	equ	0xFE1
   160                           
   161                           	psect	cstackCOMRAM
   162  000019                     __pcstackCOMRAM:
   163                           	opt stack 0
   164  000019                     delay_ms@tempodeatraso:
   165                           	opt stack 0
   166                           
   167                           ; 2 bytes @ 0x0
   168  000019                     	ds	2
   169  00001B                     ??_delay_ms:
   170                           
   171                           ; 0 bytes @ 0x2
   172  00001B                     	ds	1
   173  00001C                     tblptru	equ	0xFF8
   174                           tblptrh	equ	0xFF7
   175                           tblptrl	equ	0xFF6
   176                           tablat	equ	0xFF5
   177                           postinc0	equ	0xFEE
   178                           wreg	equ	0xFE8
   179                           postdec1	equ	0xFE5
   180                           fsr1l	equ	0xFE1
   181                           
   182                           ; 0 bytes @ 0x3
   183 ;;
   184 ;;Main: autosize = 0, tempsize = 0, incstack = 0, save=0
   185 ;;
   186 ;; *************** function _main *****************
   187 ;; Defined at:
   188 ;;		line 44 in file "Pisca_Led.c"
   189 ;; Parameters:    Size  Location     Type
   190 ;;		None
   191 ;; Auto vars:     Size  Location     Type
   192 ;;		None
   193 ;; Return value:  Size  Location     Type
   194 ;;		None               void
   195 ;; Registers used:
   196 ;;		wreg, status,2, status,0, cstack
   197 ;; Tracked objects:
   198 ;;		On entry : 0/0
   199 ;;		On exit  : 0/0
   200 ;;		Unchanged: 0/0
   201 ;; Data sizes:     COMRAM   BANK0   BANK1   BANK2   BANK3   BANK4   BANK5   BANK6   BANK7
   202 ;;      Params:         0       0       0       0       0       0       0       0       0
   203 ;;      Locals:         0       0       0       0       0       0       0       0       0
   204 ;;      Temps:          0       0       0       0       0       0       0       0       0
   205 ;;      Totals:         0       0       0       0       0       0       0       0       0
   206 ;;Total ram usage:        0 bytes
   207 ;; Hardware stack levels required when called:    1
   208 ;; This function calls:
   209 ;;		_delay_ms
   210 ;; This function is called by:
   211 ;;		Startup code after reset
   212 ;; This function uses a non-reentrant model
   213 ;;
   214                           
   215                           	psect	text0
   216  00086C                     __ptext0:
   217                           	opt stack 0
   218  00086C                     _main:
   219                           	opt stack 30
   220                           
   221                           ;Pisca_Led.c: 47: ADCON1 = 0x0F;
   222                           
   223                           ;incstack = 0
   224  00086C  0E0F               	movlw	15
   225  00086E  6EC1               	movwf	4033,c	;volatile
   226                           
   227                           ;Pisca_Led.c: 48: TRISB = 0x00;
   228  000870  0E00               	movlw	0
   229  000872  6E93               	movwf	3987,c	;volatile
   230                           
   231                           ;Pisca_Led.c: 49: LATB = 0xFF;
   232  000874  688A               	setf	3978,c	;volatile
   233  000876                     l1114:
   234                           
   235                           ;Pisca_Led.c: 52: {
   236                           ;Pisca_Led.c: 54: PORTBbits.RB7 = 1;
   237  000876  8E81               	bsf	3969,7,c	;volatile
   238                           
   239                           ;Pisca_Led.c: 55: delay_ms(100);
   240  000878  0E00               	movlw	0
   241  00087A  6E1A               	movwf	delay_ms@tempodeatraso+1,c
   242  00087C  0E64               	movlw	100
   243  00087E  6E19               	movwf	delay_ms@tempodeatraso,c
   244  000880  EC4A  F004         	call	_delay_ms	;wreg free
   245                           
   246                           ;Pisca_Led.c: 56: PORTBbits.RB7 = 0;
   247  000884  9E81               	bcf	3969,7,c	;volatile
   248                           
   249                           ;Pisca_Led.c: 57: delay_ms(100);
   250  000886  0E00               	movlw	0
   251  000888  6E1A               	movwf	delay_ms@tempodeatraso+1,c
   252  00088A  0E64               	movlw	100
   253  00088C  6E19               	movwf	delay_ms@tempodeatraso,c
   254  00088E  EC4A  F004         	call	_delay_ms	;wreg free
   255  000892  D7F1               	goto	l1114
   256  000894                     __end_of_main:
   257                           	opt stack 0
   258                           tblptru	equ	0xFF8
   259                           tblptrh	equ	0xFF7
   260                           tblptrl	equ	0xFF6
   261                           tablat	equ	0xFF5
   262                           postinc0	equ	0xFEE
   263                           wreg	equ	0xFE8
   264                           postdec1	equ	0xFE5
   265                           fsr1l	equ	0xFE1
   266                           
   267 ;; *************** function _delay_ms *****************
   268 ;; Defined at:
   269 ;;		line 74 in file "Pisca_Led.c"
   270 ;; Parameters:    Size  Location     Type
   271 ;;  tempodeatras    2    0[COMRAM] unsigned int 
   272 ;; Auto vars:     Size  Location     Type
   273 ;;		None
   274 ;; Return value:  Size  Location     Type
   275 ;;		None               void
   276 ;; Registers used:
   277 ;;		wreg, status,2, status,0
   278 ;; Tracked objects:
   279 ;;		On entry : 0/0
   280 ;;		On exit  : 0/0
   281 ;;		Unchanged: 0/0
   282 ;; Data sizes:     COMRAM   BANK0   BANK1   BANK2   BANK3   BANK4   BANK5   BANK6   BANK7
   283 ;;      Params:         2       0       0       0       0       0       0       0       0
   284 ;;      Locals:         0       0       0       0       0       0       0       0       0
   285 ;;      Temps:          1       0       0       0       0       0       0       0       0
   286 ;;      Totals:         3       0       0       0       0       0       0       0       0
   287 ;;Total ram usage:        3 bytes
   288 ;; Hardware stack levels used:    1
   289 ;; This function calls:
   290 ;;		Nothing
   291 ;; This function is called by:
   292 ;;		_main
   293 ;; This function uses a non-reentrant model
   294 ;;
   295                           
   296                           	psect	text1
   297  000894                     __ptext1:
   298                           	opt stack 0
   299  000894                     _delay_ms:
   300                           	opt stack 30
   301                           
   302                           ;Pisca_Led.c: 76: while(--tempodeatraso)
   303                           
   304                           ;incstack = 0
   305  000894  D008               	goto	l954
   306  000896                     l952:
   307                           
   308                           ;Pisca_Led.c: 77: {
   309                           ;Pisca_Led.c: 78: _delay((unsigned long)((1)*(48000000/4000.0)));
   310  000896  0E10               	movlw	16
   311  000898  6E1B               	movwf	??_delay_ms& (0+255),c
   312  00089A  0E94               	movlw	148
   313  00089C                     u387:
   314  00089C  2EE8               	decfsz	wreg,f,c
   315  00089E  D7FE               	goto	u387
   316  0008A0  2E1B               	decfsz	??_delay_ms& (0+255),f,c
   317  0008A2  D7FC               	goto	u387
   318  0008A4  D000               	nop2	
   319  0008A6                     l954:
   320  0008A6  0619               	decf	delay_ms@tempodeatraso,f,c
   321  0008A8  A0D8               	btfss	status,0,c
   322  0008AA  061A               	decf	delay_ms@tempodeatraso+1,f,c
   323  0008AC  501A               	movf	(delay_ms@tempodeatraso+1)& (0+255),w,c
   324  0008AE  1019               	iorwf	delay_ms@tempodeatraso& (0+255),w,c
   325  0008B0  B4D8               	btfsc	status,2,c
   326  0008B2  0012               	return	
   327  0008B4  D7F0               	goto	l952
   328  0008B6                     __end_of_delay_ms:
   329                           	opt stack 0
   330                           tblptru	equ	0xFF8
   331                           tblptrh	equ	0xFF7
   332                           tblptrl	equ	0xFF6
   333                           tablat	equ	0xFF5
   334                           postinc0	equ	0xFEE
   335                           wreg	equ	0xFE8
   336                           postdec1	equ	0xFE5
   337                           fsr1l	equ	0xFE1
   338                           status	equ	0xFD8
   339                           tblptru	equ	0xFF8
   340                           tblptrh	equ	0xFF7
   341                           tblptrl	equ	0xFF6
   342                           tablat	equ	0xFF5
   343                           postinc0	equ	0xFEE
   344                           wreg	equ	0xFE8
   345                           postdec1	equ	0xFE5
   346                           fsr1l	equ	0xFE1
   347                           status	equ	0xFD8
   348                           
   349                           	psect	rparam
   350  0000                     tblptru	equ	0xFF8
   351                           tblptrh	equ	0xFF7
   352                           tblptrl	equ	0xFF6
   353                           tablat	equ	0xFF5
   354                           postinc0	equ	0xFEE
   355                           wreg	equ	0xFE8
   356                           postdec1	equ	0xFE5
   357                           fsr1l	equ	0xFE1
   358                           status	equ	0xFD8


Data Sizes:
    Strings     11
    Constant    40
    Data        7
    BSS         17
    Persistent  0
    Stack       0

Auto Spaces:
    Space          Size  Autos    Used
    COMRAM           95      3      27
    BANK0           160      0       0
    BANK1           256      0       0
    BANK2           256      0       0
    BANK3           256      0       0
    BANK4           256      0       0
    BANK5           256      0       0
    BANK6           256      0       0
    BANK7           256      0       0

Pointer List with Targets:

    sp__utoa	PTR unsigned char  size(2) Largest target is 7
		 -> EscreveInteiroLCD@texto(COMRAM[7]), 

    S282$_cp	PTR const unsigned char  size(2) Largest target is 0

    _val._str._cp	PTR const unsigned char  size(2) Largest target is 0

    sp__ftoa	PTR unsigned char  size(2) Largest target is 17
		 -> ftoa@buf(COMRAM[17]), 

    sp__itoa	PTR unsigned char  size(2) Largest target is 7
		 -> EscreveInteiroLCD@texto(COMRAM[7]), 


Critical Paths under _main in COMRAM

    _main->_delay_ms

Critical Paths under _main in BANK0

    None.

Critical Paths under _main in BANK1

    None.

Critical Paths under _main in BANK2

    None.

Critical Paths under _main in BANK3

    None.

Critical Paths under _main in BANK4

    None.

Critical Paths under _main in BANK5

    None.

Critical Paths under _main in BANK6

    None.

Critical Paths under _main in BANK7

    None.

Call Graph Tables:

 ---------------------------------------------------------------------------------
 (Depth) Function   	        Calls       Base Space   Used Autos Params    Refs
 ---------------------------------------------------------------------------------
 (0) _main                                                 0     0      0     101
                           _delay_ms
 ---------------------------------------------------------------------------------
 (1) _delay_ms                                             3     1      2     101
                                              0 COMRAM     3     1      2
 ---------------------------------------------------------------------------------
 Estimated maximum stack depth 1
 ---------------------------------------------------------------------------------

 Call Graph Graphs:

 _main (ROOT)
   _delay_ms

 Address spaces:
Name               Size   Autos  Total    Cost      Usage
BIGRAM             7FF      0       0      21        0.0%
EEDATA             100      0       0       0        0.0%
BITBANK7           100      0       0      18        0.0%
BANK7              100      0       0      19        0.0%
BITBANK6           100      0       0      16        0.0%
BANK6              100      0       0      17        0.0%
BITBANK5           100      0       0      14        0.0%
BANK5              100      0       0      15        0.0%
BITBANK4           100      0       0      12        0.0%
BANK4              100      0       0      13        0.0%
BITBANK3           100      0       0      10        0.0%
BANK3              100      0       0      11        0.0%
BITBANK2           100      0       0       8        0.0%
BANK2              100      0       0       9        0.0%
BITBANK1           100      0       0       6        0.0%
BANK1              100      0       0       7        0.0%
BITBANK0            A0      0       0       4        0.0%
BANK0               A0      0       0       5        0.0%
BITCOMRAM           5F      0       0       0        0.0%
COMRAM              5F      3      1B       1       28.4%
BITSFR               0      0       0      40        0.0%
SFR                  0      0       0      40        0.0%
STACK                0      0       0       2        0.0%
NULL                 0      0       0       0        0.0%
ABS                  0      0      1B      20        0.0%
DATA                 0      0      1B       3        0.0%
CODE                 0      0       0       0        0.0%


Microchip Technology PIC18 Macro Assembler V1.33 build 59893 
Symbol Table                                                                                   Thu Sep 03 20:12:53 2020

                    l952 0896                      l954 08A6                      u387 089C  
                    wreg 000FE8                     l1114 0876                     STR_1 0829  
                   _LATB 000F8A                     _main 086C                     fsr1l 000FE1  
                   start 0000                    ?_main 0019                    _TRISB 000F93  
        __end_of_dpowers 0829                    tablat 000FF5                    status 000FD8  
        __initialization 0836             __end_of_main 0894                   ??_main 001C  
          __activetblptr 000002                   _ADCON1 000FC1         __end_of_delay_ms 08B6  
                 clear_0 083C             __pdataCOMRAM 0012             __mediumconst 0000  
                 tblptrh 000FF7                   tblptrl 000FF6                   tblptru 000FF8  
             __accesstop 0060  __end_of__initialization 0862           __pcstackCOMRAM 0019  
              ?_delay_ms 0019                  __Hparam 0000                  __Lparam 0000  
           __psmallconst 0800                  __pcinit 0836                  __ramtop 0800  
                __ptext0 086C                  __ptext1 0894                  _dpowers 0801  
             ??_delay_ms 001B     end_of_initialization 0862                  ftoa@buf 0001  
          __Lmediumconst 0000                  postdec1 000FE5                  postinc0 000FEE  
              _PORTBbits 000F81                _PORTDbits 000F83                _TRISDbits 000F95  
          __pidataCOMRAM 08B6      start_initialization 0836              __pbssCOMRAM 0001  
    __end_of__stringdata 0834        __size_of_delay_ms 0022   EscreveInteiroLCD@F5476 0012  
            __smallconst 0800              __stringdata 0829                copy_data0 0856  
  delay_ms@tempodeatraso 0019                 __Hrparam 0000                 __Lrparam 0000  
               _delay_ms 0894            __size_of_main 0028  
